target datalayout = "e-m:e-p270:32:32-p271:32:32-p272:64:64-i64:64-i128:128-f80:128-n8:16:32:64-S128"
target triple = "x86_64-pc-linux-gnu"

%struct.RelationData = type { %struct.RelFileLocator, ptr, i32, i32, i8, i8, i8, i8, i8, i32, i32, i32, i32, ptr, ptr, i32, %struct.LockInfoData, ptr, ptr, ptr, ptr, ptr, i8, ptr, ptr, ptr, ptr, ptr, ptr, i32, ptr, i8, ptr, ptr, i32, i8, i32, ptr, i8, ptr, ptr, ptr, ptr, ptr, ptr, ptr, i32, ptr, ptr, ptr, ptr, ptr, ptr, ptr, ptr, ptr, ptr, ptr, ptr, ptr, ptr, ptr, ptr, ptr, ptr, ptr, i32, i8, ptr }
%struct.RelFileLocator = type { i32, i32, i32 }
%struct.LockInfoData = type { %struct.LockRelId }
%struct.LockRelId = type { i32, i32 }
%struct.SpGistCache = type { %struct.spgConfigOut, %struct.SpGistTypeDesc, %struct.SpGistTypeDesc, %struct.SpGistTypeDesc, %struct.SpGistTypeDesc, %struct.SpGistLUPCache }
%struct.spgConfigOut = type { i32, i32, i32, i8, i8 }
%struct.SpGistTypeDesc = type { i32, i16, i8, i8, i8 }
%struct.SpGistLUPCache = type { [8 x %struct.SpGistLastUsedPage] }
%struct.SpGistLastUsedPage = type { i32, i32 }
%struct.FormData_pg_attribute = type { i32, %struct.nameData, i32, i16, i16, i32, i16, i8, i8, i8, i8, i8, i8, i8, i8, i8, i8, i8, i16, i32 }
%struct.nameData = type { [64 x i8] }
%struct.TupleDescData = type { i32, i32, i32, i32, ptr, [0 x %struct.CompactAttribute] }
%struct.CompactAttribute = type { i32, i16, i8, i8, i8, i8, i8, i8, i8 }
%struct.SpGistState = type { ptr, %struct.spgConfigOut, %struct.SpGistTypeDesc, %struct.SpGistTypeDesc, %struct.SpGistTypeDesc, %struct.SpGistTypeDesc, ptr, ptr, i32, i8 }

; Function Attrs: inlinehint nounwind uwtable
define internal ptr @TupleDescCompactAttr(ptr noundef %0, i32 noundef %1) #2 {
  %3 = alloca ptr, align 8
  %4 = alloca i32, align 4
  %5 = alloca ptr, align 8
  store ptr %0, ptr %3, align 8
  store i32 %1, ptr %4, align 4
  call void @llvm.lifetime.start.p0(i64 8, ptr %5) #7
  %6 = load ptr, ptr %3, align 8
  %7 = getelementptr inbounds nuw %struct.TupleDescData, ptr %6, i32 0, i32 5
  %8 = load i32, ptr %4, align 4
  %9 = sext i32 %8 to i64
  %10 = getelementptr inbounds [0 x %struct.CompactAttribute], ptr %7, i64 0, i64 %9
  store ptr %10, ptr %5, align 8
  %11 = load ptr, ptr %5, align 8
  call void @llvm.lifetime.end.p0(i64 8, ptr %5) #7
  ret ptr %11
}

; Function Attrs: inlinehint nounwind uwtable
define internal ptr @TupleDescAttr(ptr noundef %0, i32 noundef %1) #2 {
  %3 = alloca ptr, align 8
  %4 = alloca i32, align 4
  %5 = alloca ptr, align 8
  store ptr %0, ptr %3, align 8
  store i32 %1, ptr %4, align 4
  call void @llvm.lifetime.start.p0(i64 8, ptr %5) #7
  %6 = load ptr, ptr %3, align 8
  %7 = load ptr, ptr %3, align 8
  %8 = getelementptr inbounds nuw %struct.TupleDescData, ptr %7, i32 0, i32 0
  %9 = load i32, ptr %8, align 8
  %10 = sext i32 %9 to i64
  %11 = mul i64 %10, 16
  %12 = add i64 24, %11
  %13 = getelementptr inbounds nuw i8, ptr %6, i64 %12
  store ptr %13, ptr %5, align 8
  %14 = load ptr, ptr %5, align 8
  %15 = load i32, ptr %4, align 4
  %16 = sext i32 %15 to i64
  %17 = getelementptr inbounds %struct.FormData_pg_attribute, ptr %14, i64 %16
  call void @llvm.lifetime.end.p0(i64 8, ptr %5) #7
  ret ptr %17
}

; Function Attrs: nounwind uwtable
define dso_local ptr @getSpGistTupleDesc(ptr noundef %0, ptr noundef %1) #0 {
  %3 = alloca ptr, align 8
  %4 = alloca ptr, align 8
  %5 = alloca ptr, align 8
  %6 = alloca ptr, align 8
  %7 = alloca i32, align 4
  store ptr %0, ptr %3, align 8
  store ptr %1, ptr %4, align 8
  call void @llvm.lifetime.start.p0(i64 8, ptr %5) #7
  call void @llvm.lifetime.start.p0(i64 8, ptr %6) #7
  %8 = load ptr, ptr %4, align 8
  %9 = getelementptr inbounds nuw %struct.SpGistTypeDesc, ptr %8, i32 0, i32 0
  %10 = load i32, ptr %9, align 4
  %11 = load ptr, ptr %3, align 8
  %12 = getelementptr inbounds nuw %struct.RelationData, ptr %11, i32 0, i32 14
  %13 = load ptr, ptr %12, align 8
  %14 = call ptr @TupleDescAttr(ptr noundef %13, i32 noundef 0)
  %15 = getelementptr inbounds nuw %struct.FormData_pg_attribute, ptr %14, i32 0, i32 2
  %16 = load i32, ptr %15, align 4
  %17 = icmp eq i32 %10, %16
  br i1 %17, label %18, label %22

18:                                               ; preds = %2
  %19 = load ptr, ptr %3, align 8
  %20 = getelementptr inbounds nuw %struct.RelationData, ptr %19, i32 0, i32 14
  %21 = load ptr, ptr %20, align 8
  store ptr %21, ptr %5, align 8
  br label %79

22:                                               ; preds = %2
  %23 = load ptr, ptr %3, align 8
  %24 = getelementptr inbounds nuw %struct.RelationData, ptr %23, i32 0, i32 14
  %25 = load ptr, ptr %24, align 8
  %26 = call ptr @CreateTupleDescCopy(ptr noundef %25)
  store ptr %26, ptr %5, align 8
  %27 = load ptr, ptr %5, align 8
  %28 = call ptr @TupleDescAttr(ptr noundef %27, i32 noundef 0)
  store ptr %28, ptr %6, align 8
  %29 = load ptr, ptr %4, align 8
  %30 = getelementptr inbounds nuw %struct.SpGistTypeDesc, ptr %29, i32 0, i32 0
  %31 = load i32, ptr %30, align 4
  %32 = load ptr, ptr %6, align 8
  %33 = getelementptr inbounds nuw %struct.FormData_pg_attribute, ptr %32, i32 0, i32 2
  store i32 %31, ptr %33, align 4
  %34 = load ptr, ptr %6, align 8
  %35 = getelementptr inbounds nuw %struct.FormData_pg_attribute, ptr %34, i32 0, i32 5
  store i32 -1, ptr %35, align 4
  %36 = load ptr, ptr %4, align 8
  %37 = getelementptr inbounds nuw %struct.SpGistTypeDesc, ptr %36, i32 0, i32 1
  %38 = load i16, ptr %37, align 4
  %39 = load ptr, ptr %6, align 8
  %40 = getelementptr inbounds nuw %struct.FormData_pg_attribute, ptr %39, i32 0, i32 3
  store i16 %38, ptr %40, align 4
  %41 = load ptr, ptr %4, align 8
  %42 = getelementptr inbounds nuw %struct.SpGistTypeDesc, ptr %41, i32 0, i32 2
  %43 = load i8, ptr %42, align 2, !range !4, !noundef !5
  %44 = trunc i8 %43 to i1
  %45 = load ptr, ptr %6, align 8
  %46 = getelementptr inbounds nuw %struct.FormData_pg_attribute, ptr %45, i32 0, i32 7
  %47 = zext i1 %44 to i8
  store i8 %47, ptr %46, align 2
  %48 = load ptr, ptr %4, align 8
  %49 = getelementptr inbounds nuw %struct.SpGistTypeDesc, ptr %48, i32 0, i32 3
  %50 = load i8, ptr %49, align 1
  %51 = load ptr, ptr %6, align 8
  %52 = getelementptr inbounds nuw %struct.FormData_pg_attribute, ptr %51, i32 0, i32 8
  store i8 %50, ptr %52, align 1
  %53 = load ptr, ptr %4, align 8
  %54 = getelementptr inbounds nuw %struct.SpGistTypeDesc, ptr %53, i32 0, i32 4
  %55 = load i8, ptr %54, align 4
  %56 = load ptr, ptr %6, align 8
  %57 = getelementptr inbounds nuw %struct.FormData_pg_attribute, ptr %56, i32 0, i32 9
  store i8 %55, ptr %57, align 4
  %58 = load ptr, ptr %6, align 8
  %59 = getelementptr inbounds nuw %struct.FormData_pg_attribute, ptr %58, i32 0, i32 10
  store i8 0, ptr %59, align 1
  %60 = load ptr, ptr %6, align 8
  %61 = getelementptr inbounds nuw %struct.FormData_pg_attribute, ptr %60, i32 0, i32 19
  store i32 0, ptr %61, align 4
  call void @llvm.lifetime.start.p0(i64 4, ptr %7) #7
  store i32 1, ptr %7, align 4
  br label %62

62:                                               ; preds = %74, %22
  %63 = load i32, ptr %7, align 4
  %64 = load ptr, ptr %5, align 8
  %65 = getelementptr inbounds nuw %struct.TupleDescData, ptr %64, i32 0, i32 0
  %66 = load i32, ptr %65, align 8
  %67 = icmp slt i32 %63, %66
  br i1 %67, label %69, label %68

68:                                               ; preds = %62
  call void @llvm.lifetime.end.p0(i64 4, ptr %7) #7
  br label %77

69:                                               ; preds = %62
  %70 = load ptr, ptr %5, align 8
  %71 = load i32, ptr %7, align 4
  %72 = call ptr @TupleDescCompactAttr(ptr noundef %70, i32 noundef %71)
  %73 = getelementptr inbounds nuw %struct.CompactAttribute, ptr %72, i32 0, i32 0
  store i32 -1, ptr %73, align 4
  br label %74

74:                                               ; preds = %69
  %75 = load i32, ptr %7, align 4
  %76 = add i32 %75, 1
  store i32 %76, ptr %7, align 4
  br label %62, !llvm.loop !9

77:                                               ; preds = %68
  %78 = load ptr, ptr %5, align 8
  call void @populate_compact_attribute(ptr noundef %78, i32 noundef 0)
  br label %79

79:                                               ; preds = %77, %18
  %80 = load ptr, ptr %5, align 8
  call void @llvm.lifetime.end.p0(i64 8, ptr %6) #7
  call void @llvm.lifetime.end.p0(i64 8, ptr %5) #7
  ret ptr %80
}

; Function Attrs: nounwind uwtable
define dso_local void @initSpGistState(ptr noundef %0, ptr noundef %1) #0 {
  %3 = alloca ptr, align 8
  %4 = alloca ptr, align 8
  %5 = alloca ptr, align 8
  store ptr %0, ptr %3, align 8
  store ptr %1, ptr %4, align 8
  call void @llvm.lifetime.start.p0(i64 8, ptr %5) #7
  %6 = load ptr, ptr %4, align 8
  %7 = load ptr, ptr %3, align 8
  %8 = getelementptr inbounds nuw %struct.SpGistState, ptr %7, i32 0, i32 0
  store ptr %6, ptr %8, align 8
  %9 = load ptr, ptr %4, align 8
  %10 = call ptr @spgGetCache(ptr noundef %9)
  store ptr %10, ptr %5, align 8
  %11 = load ptr, ptr %3, align 8
  %12 = getelementptr inbounds nuw %struct.SpGistState, ptr %11, i32 0, i32 1
  %13 = load ptr, ptr %5, align 8
  %14 = getelementptr inbounds nuw %struct.SpGistCache, ptr %13, i32 0, i32 0
  call void @llvm.memcpy.p0.p0.i64(ptr align 8 %12, ptr align 4 %14, i64 16, i1 false)
  %15 = load ptr, ptr %3, align 8
  %16 = getelementptr inbounds nuw %struct.SpGistState, ptr %15, i32 0, i32 2
  %17 = load ptr, ptr %5, align 8
  %18 = getelementptr inbounds nuw %struct.SpGistCache, ptr %17, i32 0, i32 1
  call void @llvm.memcpy.p0.p0.i64(ptr align 8 %16, ptr align 4 %18, i64 12, i1 false)
  %19 = load ptr, ptr %3, align 8
  %20 = getelementptr inbounds nuw %struct.SpGistState, ptr %19, i32 0, i32 3
  %21 = load ptr, ptr %5, align 8
  %22 = getelementptr inbounds nuw %struct.SpGistCache, ptr %21, i32 0, i32 2
  call void @llvm.memcpy.p0.p0.i64(ptr align 4 %20, ptr align 4 %22, i64 12, i1 false)
  %23 = load ptr, ptr %3, align 8
  %24 = getelementptr inbounds nuw %struct.SpGistState, ptr %23, i32 0, i32 4
  %25 = load ptr, ptr %5, align 8
  %26 = getelementptr inbounds nuw %struct.SpGistCache, ptr %25, i32 0, i32 3
  call void @llvm.memcpy.p0.p0.i64(ptr align 8 %24, ptr align 4 %26, i64 12, i1 false)
  %27 = load ptr, ptr %3, align 8
  %28 = getelementptr inbounds nuw %struct.SpGistState, ptr %27, i32 0, i32 5
  %29 = load ptr, ptr %5, align 8
  %30 = getelementptr inbounds nuw %struct.SpGistCache, ptr %29, i32 0, i32 4
  call void @llvm.memcpy.p0.p0.i64(ptr align 4 %28, ptr align 4 %30, i64 12, i1 false)
  %31 = load ptr, ptr %3, align 8
  %32 = getelementptr inbounds nuw %struct.SpGistState, ptr %31, i32 0, i32 0
  %33 = load ptr, ptr %32, align 8
  %34 = load ptr, ptr %3, align 8
  %35 = getelementptr inbounds nuw %struct.SpGistState, ptr %34, i32 0, i32 3
  %36 = call ptr @getSpGistTupleDesc(ptr noundef %33, ptr noundef %35)
  %37 = load ptr, ptr %3, align 8
  %38 = getelementptr inbounds nuw %struct.SpGistState, ptr %37, i32 0, i32 6
  store ptr %36, ptr %38, align 8
  %39 = call ptr @palloc0(i64 noundef 16)
  %40 = load ptr, ptr %3, align 8
  %41 = getelementptr inbounds nuw %struct.SpGistState, ptr %40, i32 0, i32 7
  store ptr %39, ptr %41, align 8
  %42 = call i32 @GetTopTransactionIdIfAny()
  %43 = load ptr, ptr %3, align 8
  %44 = getelementptr inbounds nuw %struct.SpGistState, ptr %43, i32 0, i32 8
  store i32 %42, ptr %44, align 8
  %45 = load ptr, ptr %3, align 8
  %46 = getelementptr inbounds nuw %struct.SpGistState, ptr %45, i32 0, i32 9
  store i8 0, ptr %46, align 4
  call void @llvm.lifetime.end.p0(i64 8, ptr %5) #7
  ret void
}