; Function Attrs: nounwind uwtable
define dso_local void @initSpGistState(ptr noundef captures(none) initializes((0, 72)) %0, ptr noundef %1) local_unnamed_addr #0 {
  store ptr %1, ptr %0, align 8
  %3 = tail call ptr @spgGetCache(ptr noundef %1)
  %4 = getelementptr inbounds nuw i8, ptr %0, i64 8
  tail call void @llvm.memcpy.p0.p0.i64(ptr noundef nonnull align 8 dereferenceable(16) %4, ptr noundef nonnull align 4 dereferenceable(16) %3, i64 16, i1 false)
  %5 = getelementptr inbounds nuw i8, ptr %0, i64 24
  %6 = getelementptr inbounds nuw i8, ptr %3, i64 16
  tail call void @llvm.memcpy.p0.p0.i64(ptr noundef nonnull align 8 dereferenceable(12) %5, ptr noundef nonnull align 4 dereferenceable(12) %6, i64 12, i1 false)
  %7 = getelementptr inbounds nuw i8, ptr %0, i64 36
  %8 = getelementptr inbounds nuw i8, ptr %3, i64 28
  tail call void @llvm.memcpy.p0.p0.i64(ptr noundef nonnull align 4 dereferenceable(12) %7, ptr noundef nonnull align 4 dereferenceable(12) %8, i64 12, i1 false)
  %9 = getelementptr inbounds nuw i8, ptr %0, i64 48
  %10 = getelementptr inbounds nuw i8, ptr %3, i64 40
  tail call void @llvm.memcpy.p0.p0.i64(ptr noundef nonnull align 8 dereferenceable(12) %9, ptr noundef nonnull align 4 dereferenceable(12) %10, i64 12, i1 false)
  %11 = getelementptr inbounds nuw i8, ptr %0, i64 60
  %12 = getelementptr inbounds nuw i8, ptr %3, i64 52
  tail call void @llvm.memcpy.p0.p0.i64(ptr noundef nonnull align 4 dereferenceable(12) %11, ptr noundef nonnull align 4 dereferenceable(12) %12, i64 12, i1 false)
  %13 = load ptr, ptr %0, align 8
  %14 = load i32, ptr %7, align 4
  %15 = getelementptr inbounds nuw i8, ptr %13, i64 64
  %16 = load ptr, ptr %15, align 8
  %17 = load i32, ptr %16, align 8
  %18 = sext i32 %17 to i64
  %19 = shl nsw i64 %18, 4
  %20 = getelementptr i8, ptr %16, i64 %19
  %21 = getelementptr i8, ptr %20, i64 92
  %22 = load i32, ptr %21, align 4
  %23 = icmp eq i32 %14, %22
  br i1 %23, label %getSpGistTupleDesc.exit, label %24

24:                                               ; preds = %2
  %25 = tail call ptr @CreateTupleDescCopy(ptr noundef nonnull %16) #10
  %26 = load i32, ptr %25, align 8
  %27 = sext i32 %26 to i64
  %28 = shl nsw i64 %27, 4
  %29 = getelementptr i8, ptr %25, i64 %28
  %30 = load i32, ptr %7, align 4
  %31 = getelementptr i8, ptr %29, i64 92
  store i32 %30, ptr %31, align 4
  %32 = getelementptr i8, ptr %29, i64 100
  store i32 -1, ptr %32, align 4
  %33 = getelementptr inbounds nuw i8, ptr %0, i64 40
  %34 = load i16, ptr %33, align 4
  %35 = getelementptr i8, ptr %29, i64 96
  store i16 %34, ptr %35, align 4
  %36 = getelementptr inbounds nuw i8, ptr %0, i64 42
  %37 = load i8, ptr %36, align 2, !range !7, !noundef !8
  %38 = getelementptr i8, ptr %29, i64 106
  store i8 %37, ptr %38, align 2
  %39 = getelementptr inbounds nuw i8, ptr %0, i64 43
  %40 = load i8, ptr %39, align 1
  %41 = getelementptr i8, ptr %29, i64 107
  store i8 %40, ptr %41, align 1
  %42 = getelementptr inbounds nuw i8, ptr %0, i64 44
  %43 = load i8, ptr %42, align 4
  %44 = getelementptr i8, ptr %29, i64 108
  store i8 %43, ptr %44, align 4
  %45 = getelementptr i8, ptr %29, i64 109
  store i8 0, ptr %45, align 1
  %46 = getelementptr i8, ptr %29, i64 120
  store i32 0, ptr %46, align 4
  %47 = load i32, ptr %25, align 8
  %48 = icmp sgt i32 %47, 1
  br i1 %48, label %.lr.ph.i, label %._crit_edge.i

.lr.ph.i:                                         ; preds = %24
  %49 = getelementptr inbounds nuw i8, ptr %25, i64 24
  %50 = zext nneg i32 %47 to i64
  br label %51

._crit_edge.i:                                    ; preds = %51, %24
  tail call void @populate_compact_attribute(ptr noundef nonnull %25, i32 noundef 0) #10
  br label %getSpGistTupleDesc.exit

51:                                               ; preds = %51, %.lr.ph.i
  %indvars.iv.i = phi i64 [ 1, %.lr.ph.i ], [ %indvars.iv.next.i, %51 ]
  %52 = getelementptr inbounds nuw [0 x %struct.CompactAttribute], ptr %49, i64 0, i64 %indvars.iv.i
  store i32 -1, ptr %52, align 4
  %indvars.iv.next.i = add nuw nsw i64 %indvars.iv.i, 1
  %exitcond.not = icmp eq i64 %indvars.iv.next.i, %50
  br i1 %exitcond.not, label %._crit_edge.i, label %51, !llvm.loop !9

getSpGistTupleDesc.exit:                          ; preds = %2, %._crit_edge.i
  %.024.i = phi ptr [ %25, %._crit_edge.i ], [ %16, %2 ]
  %53 = getelementptr inbounds nuw i8, ptr %0, i64 72
  store ptr %.024.i, ptr %53, align 8
  %54 = tail call ptr @palloc0(i64 noundef 16) #10
  %55 = getelementptr inbounds nuw i8, ptr %0, i64 80
  store ptr %54, ptr %55, align 8
  %56 = tail call i32 @GetTopTransactionIdIfAny() #10
  %57 = getelementptr inbounds nuw i8, ptr %0, i64 88
  store i32 %56, ptr %57, align 8
  %58 = getelementptr inbounds nuw i8, ptr %0, i64 92
  store i8 0, ptr %58, align 4
  ret void
}